; Function Attrs: nofree norecurse nosync nounwind memory(argmem: readwrite) uwtable
define internal void @conv_AV_SAMPLE_FMT_FLT_to_AV_SAMPLE_FMT_S32(ptr noundef writeonly captures(address) %0, ptr noundef readonly captures(none) %1, i32 noundef %2, i32 noundef %3, ptr noundef readnone captures(address) %4) #4 {
  %6 = mul nsw i32 %3, 3
  %7 = sext i32 %6 to i64
  %8 = sub nsw i64 0, %7
  %9 = getelementptr inbounds i8, ptr %4, i64 %8
  %10 = icmp ult ptr %0, %9
  br i1 %10, label %.lr.ph, label %.preheader

.lr.ph:                                           ; preds = %5
  %11 = sext i32 %2 to i64
  %12 = sext i32 %3 to i64
  br label %16

.preheader:                                       ; preds = %16, %5
  %.035.lcssa = phi ptr [ %1, %5 ], [ %43, %16 ]
  %.0.lcssa = phi ptr [ %0, %5 ], [ %44, %16 ]
  %13 = icmp ult ptr %.0.lcssa, %4
  br i1 %13, label %.lr.ph50, label %._crit_edge

.lr.ph50:                                         ; preds = %.preheader
  %14 = sext i32 %2 to i64
  %15 = sext i32 %3 to i64
  br label %46

16:                                               ; preds = %.lr.ph, %16
  %.046 = phi ptr [ %0, %.lr.ph ], [ %44, %16 ]
  %.03545 = phi ptr [ %1, %.lr.ph ], [ %43, %16 ]
  %17 = load float, ptr %.03545, align 4, !tbaa !38
  %18 = fmul nsz float %17, 0x41E0000000000000
  %19 = tail call i64 @llvm.llrint.i64.f32(float %18)
  %20 = tail call i64 @llvm.smax.i64(i64 %19, i64 -2147483648)
  %21 = tail call i64 @llvm.smin.i64(i64 %20, i64 2147483647)
  %.0.i = trunc nsw i64 %21 to i32
  store i32 %.0.i, ptr %.046, align 4, !tbaa !27
  %22 = getelementptr inbounds i8, ptr %.03545, i64 %11
  %23 = getelementptr inbounds i8, ptr %.046, i64 %12
  %24 = load float, ptr %22, align 4, !tbaa !38
  %25 = fmul nsz float %24, 0x41E0000000000000
  %26 = tail call i64 @llvm.llrint.i64.f32(float %25)
  %27 = tail call i64 @llvm.smax.i64(i64 %26, i64 -2147483648)
  %28 = tail call i64 @llvm.smin.i64(i64 %27, i64 2147483647)
  %.0.i38 = trunc nsw i64 %28 to i32
  store i32 %.0.i38, ptr %23, align 4, !tbaa !27
  %29 = getelementptr inbounds i8, ptr %22, i64 %11
  %30 = getelementptr inbounds i8, ptr %23, i64 %12
  %31 = load float, ptr %29, align 4, !tbaa !38
  %32 = fmul nsz float %31, 0x41E0000000000000
  %33 = tail call i64 @llvm.llrint.i64.f32(float %32)
  %34 = tail call i64 @llvm.smax.i64(i64 %33, i64 -2147483648)
  %35 = tail call i64 @llvm.smin.i64(i64 %34, i64 2147483647)
  %.0.i40 = trunc nsw i64 %35 to i32
  store i32 %.0.i40, ptr %30, align 4, !tbaa !27
  %36 = getelementptr inbounds i8, ptr %29, i64 %11
  %37 = getelementptr inbounds i8, ptr %30, i64 %12
  %38 = load float, ptr %36, align 4, !tbaa !38
  %39 = fmul nsz float %38, 0x41E0000000000000
  %40 = tail call i64 @llvm.llrint.i64.f32(float %39)
  %41 = tail call i64 @llvm.smax.i64(i64 %40, i64 -2147483648)
  %42 = tail call i64 @llvm.smin.i64(i64 %41, i64 2147483647)
  %.0.i42 = trunc nsw i64 %42 to i32
  store i32 %.0.i42, ptr %37, align 4, !tbaa !27
  %43 = getelementptr inbounds i8, ptr %36, i64 %11
  %44 = getelementptr inbounds i8, ptr %37, i64 %12
  %45 = icmp ult ptr %44, %9
  br i1 %45, label %16, label %.preheader, !llvm.loop !78

46:                                               ; preds = %.lr.ph50, %46
  %.149 = phi ptr [ %.0.lcssa, %.lr.ph50 ], [ %53, %46 ]
  %.13648 = phi ptr [ %.035.lcssa, %.lr.ph50 ], [ %52, %46 ]
  %47 = load float, ptr %.13648, align 4, !tbaa !38
  %48 = fmul nsz float %47, 0x41E0000000000000
  %49 = tail call i64 @llvm.llrint.i64.f32(float %48)
  %50 = tail call i64 @llvm.smax.i64(i64 %49, i64 -2147483648)
  %51 = tail call i64 @llvm.smin.i64(i64 %50, i64 2147483647)
  %.0.i44 = trunc nsw i64 %51 to i32
  store i32 %.0.i44, ptr %.149, align 4, !tbaa !27
  %52 = getelementptr inbounds i8, ptr %.13648, i64 %14
  %53 = getelementptr inbounds i8, ptr %.149, i64 %15
  %54 = icmp ult ptr %53, %4
  br i1 %54, label %46, label %._crit_edge, !llvm.loop !79

._crit_edge:                                      ; preds = %46, %.preheader
  ret void
}